target datalayout = "e-m:e-p270:32:32-p271:32:32-p272:64:64-i64:64-i128:128-f80:128-n8:16:32:64-S128"
target triple = "x86_64-pc-linux-gnu"

%struct.SPS = type { i32, i32, i32, i32, i32, i32, i32, i32, i32, i32, i32, i32, i32, i32, i32, i32, i32, i32, i32, i32, i32, i32, i32, i32, i32, %struct.H2645VUI, i32, i32, i32, i32, [256 x i32], i32, i32, i32, i32, i16, [6 x [16 x i8]], [6 x [64 x i8]], i32, i32, i32, i32, i32, i32, [32 x i32], [32 x i32], i32, i32, i32, i32, i32, i32, i32, i32, [4096 x i8], i64 }
%struct.H2645VUI = type { %struct.AVRational, i32, i32, i32, i32, i32, i32, i32, i32, i32, i32, i32, i32, i32, i32, i32 }
%struct.AVRational = type { i32, i32 }

@.str.45 = private unnamed_addr constant [65 x i8] c"Current profile doesn't provide more RBSP data in PPS, skipping\0A\00", align 1

; Function Attrs: nounwind uwtable
define internal i32 @more_rbsp_data_in_pps(ptr noundef %0, ptr noundef %1) #0 {
  %3 = alloca i32, align 4
  %4 = alloca ptr, align 8
  %5 = alloca ptr, align 8
  %6 = alloca i32, align 4
  %7 = alloca i32, align 4
  store ptr %0, ptr %4, align 8, !tbaa !22
  store ptr %1, ptr %5, align 8, !tbaa !104
  call void @llvm.lifetime.start.p0(i64 4, ptr %6) #8
  %8 = load ptr, ptr %4, align 8, !tbaa !22
  %9 = getelementptr inbounds nuw %struct.SPS, ptr %8, i32 0, i32 1
  %10 = load i32, ptr %9, align 4, !tbaa !37
  store i32 %10, ptr %6, align 4, !tbaa !9
  %11 = load i32, ptr %6, align 4, !tbaa !9
  %12 = icmp eq i32 %11, 66
  br i1 %12, label %19, label %13

13:                                               ; preds = %2
  %14 = load i32, ptr %6, align 4, !tbaa !9
  %15 = icmp eq i32 %14, 77
  br i1 %15, label %19, label %16

16:                                               ; preds = %13
  %17 = load i32, ptr %6, align 4, !tbaa !9
  %18 = icmp eq i32 %17, 88
  br i1 %18, label %19, label %27

19:                                               ; preds = %16, %13, %2
  %20 = load ptr, ptr %4, align 8, !tbaa !22
  %21 = getelementptr inbounds nuw %struct.SPS, ptr %20, i32 0, i32 53
  %22 = load i32, ptr %21, align 8, !tbaa !38
  %23 = and i32 %22, 7
  %24 = icmp ne i32 %23, 0
  br i1 %24, label %25, label %27

25:                                               ; preds = %19
  %26 = load ptr, ptr %5, align 8, !tbaa !104
  call void (ptr, i32, ptr, ...) @av_log(ptr noundef %26, i32 noundef 40, ptr noundef @.str.45)
  store i32 0, ptr %3, align 4
  store i32 1, ptr %7, align 4
  br label %28

27:                                               ; preds = %19, %16
  store i32 1, ptr %3, align 4
  store i32 1, ptr %7, align 4
  br label %28

28:                                               ; preds = %27, %25
  call void @llvm.lifetime.end.p0(i64 4, ptr %6) #8
  %29 = load i32, ptr %3, align 4
  ret i32 %29
}