; Function Attrs: nounwind uwtable
define internal fastcc range(i32 0, 2) i32 @more_rbsp_data_in_pps(ptr noundef readonly captures(none) %0, ptr noundef %1) unnamed_addr #0 {
  %3 = getelementptr inbounds nuw i8, ptr %0, i64 4
  %4 = load i32, ptr %3, align 4, !tbaa !32
  switch i32 %4, label %10 [
    i32 88, label %5
    i32 77, label %5
    i32 66, label %5
  ]

5:                                                ; preds = %2, %2, %2
  %6 = getelementptr inbounds nuw i8, ptr %0, i64 2016
  %7 = load i32, ptr %6, align 8, !tbaa !33
  %8 = and i32 %7, 7
  %.not = icmp eq i32 %8, 0
  br i1 %.not, label %10, label %9

9:                                                ; preds = %5
  tail call void (ptr, i32, ptr, ...) @av_log(ptr noundef %1, i32 noundef 40, ptr noundef nonnull @.str.45) #11
  br label %10

10:                                               ; preds = %5, %2, %9
  %.0 = phi i32 [ 0, %9 ], [ 1, %2 ], [ 1, %5 ]
  ret i32 %.0
}